target datalayout = "e-m:e-p270:32:32-p271:32:32-p272:64:64-i64:64-i128:128-f80:128-n8:16:32:64-S128"
target triple = "x86_64-pc-linux-gnu"

%union.pthread_mutex_t = type { %struct.__pthread_mutex_s }
%struct.__pthread_mutex_s = type { i32, i32, i32, i32, i32, i16, i16, %struct.__pthread_internal_list }
%struct.__pthread_internal_list = type { ptr, ptr }
%struct.___itt_global = type { [8 x i8], i64, i64, i64, i64, i64, i64, %union.pthread_mutex_t, ptr, ptr, ptr, ptr, ptr, ptr, ptr, ptr, i32, ptr, i32, ptr, ptr }
%union.pthread_mutexattr_t = type { i32 }

@.str = private unnamed_addr constant [23 x i8] c"pthread_mutexattr_init\00", align 1
@.str.1 = private unnamed_addr constant [26 x i8] c"pthread_mutexattr_settype\00", align 1
@.str.2 = private unnamed_addr constant [19 x i8] c"pthread_mutex_init\00", align 1
@.str.3 = private unnamed_addr constant [26 x i8] c"pthread_mutexattr_destroy\00", align 1
@.str.157 = private unnamed_addr constant [21 x i8] c"INTEL_LIBITTNOTIFY64\00", align 1
@__itt_get_env_var.env_buff = internal global [4086 x i8] zeroinitializer, align 16
@__itt_get_env_var.env_value = internal global ptr @__itt_get_env_var.env_buff, align 8

; Function Attrs: nounwind uwtable
define internal ptr @__itt_get_env_var(ptr noundef %0) #0 {
  %2 = alloca ptr, align 8
  %3 = alloca ptr, align 8
  %4 = alloca ptr, align 8
  %5 = alloca i64, align 8
  %6 = alloca i64, align 8
  %7 = alloca ptr, align 8
  %8 = alloca i64, align 8
  %9 = alloca i32, align 4
  store ptr %0, ptr %3, align 8, !tbaa !22
  %10 = load ptr, ptr %3, align 8, !tbaa !22
  %11 = icmp ne ptr %10, null
  br i1 %11, label %12, label %71

12:                                               ; preds = %1
  call void @llvm.lifetime.start.p0(i64 8, ptr %4) #8
  %13 = load ptr, ptr %3, align 8, !tbaa !22
  %14 = call ptr @getenv(ptr noundef %13) #8
  store ptr %14, ptr %4, align 8, !tbaa !22
  %15 = load ptr, ptr %4, align 8, !tbaa !22
  %16 = icmp ne ptr %15, null
  br i1 %16, label %17, label %67

17:                                               ; preds = %12
  call void @llvm.lifetime.start.p0(i64 8, ptr %5) #8
  %18 = load ptr, ptr %4, align 8, !tbaa !22
  %19 = call i64 @strlen(ptr noundef %18) #9
  store i64 %19, ptr %5, align 8, !tbaa !25
  call void @llvm.lifetime.start.p0(i64 8, ptr %6) #8
  %20 = load ptr, ptr @__itt_get_env_var.env_value, align 8, !tbaa !22
  %21 = ptrtoint ptr %20 to i64
  %22 = sub i64 %21, ptrtoint (ptr @__itt_get_env_var.env_buff to i64)
  %23 = sub i64 4086, %22
  store i64 %23, ptr %6, align 8, !tbaa !25
  %24 = load i64, ptr %5, align 8, !tbaa !25
  %25 = load i64, ptr %6, align 8, !tbaa !25
  %26 = icmp ult i64 %24, %25
  br i1 %26, label %27, label %58

27:                                               ; preds = %17
  call void @llvm.lifetime.start.p0(i64 8, ptr %7) #8
  %28 = load ptr, ptr @__itt_get_env_var.env_value, align 8, !tbaa !22
  store ptr %28, ptr %7, align 8, !tbaa !22
  %29 = load i64, ptr %6, align 8, !tbaa !25
  %30 = icmp ugt i64 %29, 0
  br i1 %30, label %31, label %52

31:                                               ; preds = %27
  call void @llvm.lifetime.start.p0(i64 8, ptr %8) #8
  %32 = load i64, ptr %6, align 8, !tbaa !25
  %33 = sub i64 %32, 1
  %34 = load i64, ptr %5, align 8, !tbaa !25
  %35 = add i64 %34, 1
  %36 = icmp ult i64 %33, %35
  br i1 %36, label %37, label %40

37:                                               ; preds = %31
  %38 = load i64, ptr %6, align 8, !tbaa !25
  %39 = sub i64 %38, 1
  br label %43

40:                                               ; preds = %31
  %41 = load i64, ptr %5, align 8, !tbaa !25
  %42 = add i64 %41, 1
  br label %43

43:                                               ; preds = %40, %37
  %44 = phi i64 [ %39, %37 ], [ %42, %40 ]
  store volatile i64 %44, ptr %8, align 8, !tbaa !25
  %45 = load ptr, ptr @__itt_get_env_var.env_value, align 8, !tbaa !22
  %46 = load ptr, ptr %4, align 8, !tbaa !22
  %47 = load volatile i64, ptr %8, align 8, !tbaa !25
  %48 = call ptr @strncpy(ptr noundef %45, ptr noundef %46, i64 noundef %47) #8
  %49 = load ptr, ptr @__itt_get_env_var.env_value, align 8, !tbaa !22
  %50 = load volatile i64, ptr %8, align 8, !tbaa !25
  %51 = getelementptr inbounds nuw i8, ptr %49, i64 %50
  store i8 0, ptr %51, align 1, !tbaa !57
  call void @llvm.lifetime.end.p0(i64 8, ptr %8) #8
  br label %52

52:                                               ; preds = %43, %27
  %53 = load i64, ptr %5, align 8, !tbaa !25
  %54 = add i64 %53, 1
  %55 = load ptr, ptr @__itt_get_env_var.env_value, align 8, !tbaa !22
  %56 = getelementptr inbounds nuw i8, ptr %55, i64 %54
  store ptr %56, ptr @__itt_get_env_var.env_value, align 8, !tbaa !22
  %57 = load ptr, ptr %7, align 8, !tbaa !22
  store ptr %57, ptr %2, align 8
  store i32 1, ptr %9, align 4
  call void @llvm.lifetime.end.p0(i64 8, ptr %7) #8
  br label %64

58:                                               ; preds = %17
  %59 = load ptr, ptr %3, align 8, !tbaa !22
  %60 = load i64, ptr %5, align 8, !tbaa !25
  %61 = load i64, ptr %6, align 8, !tbaa !25
  %62 = sub i64 %61, 1
  call void (i32, ...) @__itt_report_error(i32 noundef 5, ptr noundef %59, i64 noundef %60, i64 noundef %62)
  br label %63

63:                                               ; preds = %58
  store i32 0, ptr %9, align 4
  br label %64

64:                                               ; preds = %63, %52
  call void @llvm.lifetime.end.p0(i64 8, ptr %6) #8
  call void @llvm.lifetime.end.p0(i64 8, ptr %5) #8
  %65 = load i32, ptr %9, align 4
  switch i32 %65, label %68 [
    i32 0, label %66
  ]

66:                                               ; preds = %64
  br label %67

67:                                               ; preds = %66, %12
  store i32 0, ptr %9, align 4
  br label %68

68:                                               ; preds = %67, %64
  call void @llvm.lifetime.end.p0(i64 8, ptr %4) #8
  %69 = load i32, ptr %9, align 4
  switch i32 %69, label %74 [
    i32 0, label %70
    i32 1, label %72
  ]

70:                                               ; preds = %68
  br label %71

71:                                               ; preds = %70, %1
  store ptr null, ptr %2, align 8
  br label %72

72:                                               ; preds = %71, %68
  %73 = load ptr, ptr %2, align 8
  ret ptr %73

74:                                               ; preds = %68
  unreachable
}

; Function Attrs: nounwind uwtable
define internal ptr @__itt_get_lib_name() #0 {
  %1 = alloca ptr, align 8
  call void @llvm.lifetime.start.p0(i64 8, ptr %1) #8
  %2 = call ptr @__itt_get_env_var(ptr noundef @.str.157)
  store ptr %2, ptr %1, align 8, !tbaa !22
  %3 = load ptr, ptr %1, align 8, !tbaa !22
  call void @llvm.lifetime.end.p0(i64 8, ptr %1) #8
  ret ptr %3
}

; Function Attrs: alwaysinline nounwind uwtable
define internal i64 @__itt_interlocked_compare_exchange(ptr noundef %0, i64 noundef %1, i64 noundef %2) #4 {
  %4 = alloca ptr, align 8
  %5 = alloca i64, align 8
  %6 = alloca i64, align 8
  store ptr %0, ptr %4, align 8, !tbaa !125
  store i64 %1, ptr %5, align 8, !tbaa !25
  store i64 %2, ptr %6, align 8, !tbaa !25
  %7 = load ptr, ptr %4, align 8, !tbaa !125
  %8 = load i64, ptr %5, align 8, !tbaa !25
  %9 = load i64, ptr %6, align 8, !tbaa !25
  %10 = cmpxchg ptr %7, i64 %8, i64 %9 seq_cst seq_cst, align 8
  %11 = extractvalue { i64, i1 } %10, 0
  ret i64 %11
}

; Function Attrs: nounwind uwtable
define internal i32 @__itt_is_collector_available() #0 {
  %1 = alloca i32, align 4
  %2 = alloca %union.pthread_mutexattr_t, align 4
  %3 = alloca i32, align 4
  call void @llvm.lifetime.start.p0(i64 4, ptr %1) #8
  %4 = icmp ne ptr @pthread_mutex_init, null
  br i1 %4, label %5, label %61

5:                                                ; preds = %0
  %6 = icmp ne ptr @pthread_mutex_lock, null
  br i1 %6, label %7, label %61

7:                                                ; preds = %5
  %8 = icmp ne ptr @pthread_mutex_unlock, null
  br i1 %8, label %9, label %61

9:                                                ; preds = %7
  %10 = icmp ne ptr @pthread_mutex_destroy, null
  br i1 %10, label %11, label %61

11:                                               ; preds = %9
  %12 = icmp ne ptr @pthread_mutexattr_init, null
  br i1 %12, label %13, label %61

13:                                               ; preds = %11
  %14 = icmp ne ptr @pthread_mutexattr_settype, null
  br i1 %14, label %15, label %61

15:                                               ; preds = %13
  %16 = icmp ne ptr @pthread_mutexattr_destroy, null
  br i1 %16, label %17, label %61

17:                                               ; preds = %15
  %18 = icmp ne ptr @pthread_self, null
  br i1 %18, label %19, label %61

19:                                               ; preds = %17
  %20 = load volatile i64, ptr getelementptr inbounds nuw (%struct.___itt_global, ptr @__itt__ittapi_global, i32 0, i32 5), align 8, !tbaa !48
  %21 = icmp ne i64 %20, 0
  br i1 %21, label %59, label %22

22:                                               ; preds = %19
  %23 = call i64 @__itt_interlocked_compare_exchange(ptr noundef getelementptr inbounds nuw (%struct.___itt_global, ptr @__itt__ittapi_global, i32 0, i32 6), i64 noundef 1, i64 noundef 0)
  %24 = icmp eq i64 %23, 0
  br i1 %24, label %25, label %50

25:                                               ; preds = %22
  call void @llvm.lifetime.start.p0(i64 4, ptr %2) #8
  call void @llvm.lifetime.start.p0(i64 4, ptr %3) #8
  %26 = call i32 @pthread_mutexattr_init(ptr noundef %2) #8
  store i32 %26, ptr %3, align 4, !tbaa !24
  %27 = load i32, ptr %3, align 4, !tbaa !24
  %28 = icmp ne i32 %27, 0
  br i1 %28, label %29, label %31

29:                                               ; preds = %25
  %30 = load i32, ptr %3, align 4, !tbaa !24
  call void (i32, ...) @__itt_report_error(i32 noundef 6, ptr noundef @.str, i32 noundef %30)
  br label %31

31:                                               ; preds = %29, %25
  %32 = call i32 @pthread_mutexattr_settype(ptr noundef %2, i32 noundef 1) #8
  store i32 %32, ptr %3, align 4, !tbaa !24
  %33 = load i32, ptr %3, align 4, !tbaa !24
  %34 = icmp ne i32 %33, 0
  br i1 %34, label %35, label %37

35:                                               ; preds = %31
  %36 = load i32, ptr %3, align 4, !tbaa !24
  call void (i32, ...) @__itt_report_error(i32 noundef 6, ptr noundef @.str.1, i32 noundef %36)
  br label %37

37:                                               ; preds = %35, %31
  %38 = call i32 @pthread_mutex_init(ptr noundef getelementptr inbounds nuw (%struct.___itt_global, ptr @__itt__ittapi_global, i32 0, i32 7), ptr noundef %2) #8
  store i32 %38, ptr %3, align 4, !tbaa !24
  %39 = load i32, ptr %3, align 4, !tbaa !24
  %40 = icmp ne i32 %39, 0
  br i1 %40, label %41, label %43

41:                                               ; preds = %37
  %42 = load i32, ptr %3, align 4, !tbaa !24
  call void (i32, ...) @__itt_report_error(i32 noundef 6, ptr noundef @.str.2, i32 noundef %42)
  br label %43

43:                                               ; preds = %41, %37
  %44 = call i32 @pthread_mutexattr_destroy(ptr noundef %2) #8
  store i32 %44, ptr %3, align 4, !tbaa !24
  %45 = load i32, ptr %3, align 4, !tbaa !24
  %46 = icmp ne i32 %45, 0
  br i1 %46, label %47, label %49

47:                                               ; preds = %43
  %48 = load i32, ptr %3, align 4, !tbaa !24
  call void (i32, ...) @__itt_report_error(i32 noundef 6, ptr noundef @.str.3, i32 noundef %48)
  br label %49

49:                                               ; preds = %47, %43
  call void @llvm.lifetime.end.p0(i64 4, ptr %3) #8
  call void @llvm.lifetime.end.p0(i64 4, ptr %2) #8
  store volatile i64 1, ptr getelementptr inbounds nuw (%struct.___itt_global, ptr @__itt__ittapi_global, i32 0, i32 5), align 8, !tbaa !48
  br label %58

50:                                               ; preds = %22
  br label %51

51:                                               ; preds = %55, %50
  %52 = load volatile i64, ptr getelementptr inbounds nuw (%struct.___itt_global, ptr @__itt__ittapi_global, i32 0, i32 5), align 8, !tbaa !48
  %53 = icmp ne i64 %52, 0
  %54 = xor i1 %53, true
  br i1 %54, label %55, label %57

55:                                               ; preds = %51
  %56 = call i32 @sched_yield() #8
  br label %51, !llvm.loop !155

57:                                               ; preds = %51
  br label %58

58:                                               ; preds = %57, %49
  br label %59

59:                                               ; preds = %58, %19
  %60 = call i32 @pthread_mutex_lock(ptr noundef getelementptr inbounds nuw (%struct.___itt_global, ptr @__itt__ittapi_global, i32 0, i32 7)) #8
  br label %61

61:                                               ; preds = %59, %17, %15, %13, %11, %9, %7, %5, %0
  %62 = load i32, ptr getelementptr inbounds nuw (%struct.___itt_global, ptr @__itt__ittapi_global, i32 0, i32 16), align 8, !tbaa !135
  %63 = icmp eq i32 %62, 0
  br i1 %63, label %64, label %68

64:                                               ; preds = %61
  %65 = call ptr @__itt_get_lib_name()
  %66 = icmp eq ptr null, %65
  %67 = select i1 %66, i32 2, i32 3
  store i32 %67, ptr getelementptr inbounds nuw (%struct.___itt_global, ptr @__itt__ittapi_global, i32 0, i32 16), align 8, !tbaa !135
  br label %68

68:                                               ; preds = %64, %61
  %69 = load i32, ptr getelementptr inbounds nuw (%struct.___itt_global, ptr @__itt__ittapi_global, i32 0, i32 16), align 8, !tbaa !135
  %70 = icmp eq i32 %69, 3
  br i1 %70, label %74, label %71

71:                                               ; preds = %68
  %72 = load i32, ptr getelementptr inbounds nuw (%struct.___itt_global, ptr @__itt__ittapi_global, i32 0, i32 16), align 8, !tbaa !135
  %73 = icmp eq i32 %72, 4
  br label %74

74:                                               ; preds = %71, %68
  %75 = phi i1 [ true, %68 ], [ %73, %71 ]
  %76 = zext i1 %75 to i32
  store i32 %76, ptr %1, align 4, !tbaa !24
  %77 = call i32 @pthread_mutex_unlock(ptr noundef getelementptr inbounds nuw (%struct.___itt_global, ptr @__itt__ittapi_global, i32 0, i32 7)) #8
  %78 = load i32, ptr %1, align 4, !tbaa !24
  call void @llvm.lifetime.end.p0(i64 4, ptr %1) #8
  ret i32 %78
}