; Function Attrs: nounwind uwtable
define internal fastcc range(i32 0, 2) i32 @__itt_is_collector_available() unnamed_addr #0 {
  %1 = alloca i64, align 8
  %2 = alloca %union.pthread_mutexattr_t, align 4
  %3 = icmp ne ptr @pthread_mutex_init, null
  %4 = icmp ne ptr @pthread_mutex_lock, null
  %or.cond = and i1 %3, %4
  %5 = icmp ne ptr @pthread_mutex_unlock, null
  %or.cond1 = and i1 %5, %or.cond
  %6 = icmp ne ptr @pthread_mutex_destroy, null
  %or.cond2 = and i1 %6, %or.cond1
  %7 = icmp ne ptr @pthread_mutexattr_init, null
  %or.cond3 = and i1 %7, %or.cond2
  %8 = icmp ne ptr @pthread_mutexattr_settype, null
  %or.cond4 = and i1 %8, %or.cond3
  %9 = icmp ne ptr @pthread_mutexattr_destroy, null
  %or.cond5 = and i1 %9, %or.cond4
  %10 = icmp ne ptr @pthread_self, null
  %or.cond6 = and i1 %10, %or.cond5
  br i1 %or.cond6, label %11, label %34

11:                                               ; preds = %0
  %12 = load volatile i64, ptr getelementptr inbounds nuw (i8, ptr @__itt__ittapi_global, i64 40), align 8, !tbaa !21
  %.not = icmp eq i64 %12, 0
  br i1 %.not, label %13, label %.loopexit

13:                                               ; preds = %11
  %14 = cmpxchg ptr getelementptr inbounds nuw (i8, ptr @__itt__ittapi_global, i64 48), i64 1, i64 0 seq_cst seq_cst, align 8
  %15 = extractvalue { i64, i1 } %14, 0
  %16 = icmp eq i64 %15, 0
  br i1 %16, label %18, label %.preheader

.preheader:                                       ; preds = %13
  %17 = load volatile i64, ptr getelementptr inbounds nuw (i8, ptr @__itt__ittapi_global, i64 40), align 8, !tbaa !21
  %.not1823 = icmp eq i64 %17, 0
  br i1 %.not1823, label %.lr.ph, label %.loopexit

18:                                               ; preds = %13
  call void @llvm.lifetime.start.p0(i64 4, ptr nonnull %2) #14
  %19 = call i32 @pthread_mutexattr_init(ptr noundef nonnull %2) #14
  %.not19 = icmp eq i32 %19, 0
  br i1 %.not19, label %21, label %20

20:                                               ; preds = %18
  call void (i32, ...) @__itt_report_error(i32 noundef 6, ptr noundef nonnull @.str, i32 noundef %19)
  br label %21

21:                                               ; preds = %20, %18
  %22 = call i32 @pthread_mutexattr_settype(ptr noundef nonnull %2, i32 noundef 1) #14
  %.not20 = icmp eq i32 %22, 0
  br i1 %.not20, label %24, label %23

23:                                               ; preds = %21
  call void (i32, ...) @__itt_report_error(i32 noundef 6, ptr noundef nonnull @.str.1, i32 noundef %22)
  br label %24

24:                                               ; preds = %23, %21
  %25 = call i32 @pthread_mutex_init(ptr noundef nonnull getelementptr inbounds nuw (i8, ptr @__itt__ittapi_global, i64 56), ptr noundef nonnull %2) #14
  %.not21 = icmp eq i32 %25, 0
  br i1 %.not21, label %27, label %26

26:                                               ; preds = %24
  call void (i32, ...) @__itt_report_error(i32 noundef 6, ptr noundef nonnull @.str.2, i32 noundef %25)
  br label %27

27:                                               ; preds = %26, %24
  %28 = call i32 @pthread_mutexattr_destroy(ptr noundef nonnull %2) #14
  %.not22 = icmp eq i32 %28, 0
  br i1 %.not22, label %30, label %29

29:                                               ; preds = %27
  call void (i32, ...) @__itt_report_error(i32 noundef 6, ptr noundef nonnull @.str.3, i32 noundef %28)
  br label %30

30:                                               ; preds = %29, %27
  call void @llvm.lifetime.end.p0(i64 4, ptr nonnull %2) #14
  store volatile i64 1, ptr getelementptr inbounds nuw (i8, ptr @__itt__ittapi_global, i64 40), align 8, !tbaa !21
  br label %.loopexit

.lr.ph:                                           ; preds = %.preheader, %.lr.ph
  %31 = tail call i32 @sched_yield() #14
  %32 = load volatile i64, ptr getelementptr inbounds nuw (i8, ptr @__itt__ittapi_global, i64 40), align 8, !tbaa !21
  %.not18 = icmp eq i64 %32, 0
  br i1 %.not18, label %.lr.ph, label %.loopexit, !llvm.loop !132

.loopexit:                                        ; preds = %.lr.ph, %.preheader, %30, %11
  %33 = call i32 @pthread_mutex_lock(ptr noundef nonnull getelementptr inbounds nuw (i8, ptr @__itt__ittapi_global, i64 56)) #14
  br label %34

34:                                               ; preds = %.loopexit, %0
  %35 = load i32, ptr getelementptr inbounds nuw (i8, ptr @__itt__ittapi_global, i64 160), align 8, !tbaa !122
  %36 = icmp eq i32 %35, 0
  br i1 %36, label %37, label %56

37:                                               ; preds = %34
  %38 = call ptr @getenv(ptr noundef nonnull @.str.157) #14
  %.not29.i.i = icmp eq ptr %38, null
  br i1 %.not29.i.i, label %__itt_get_lib_name.exit, label %39

39:                                               ; preds = %37
  %40 = call i64 @strlen(ptr noundef nonnull dereferenceable(1) %38) #15
  %41 = load ptr, ptr @__itt_get_env_var.env_value, align 8, !tbaa !105
  %42 = ptrtoint ptr %41 to i64
  %43 = sub i64 add (i64 ptrtoint (ptr @__itt_get_env_var.env_buff to i64), i64 4086), %42
  %.not30.i.i = icmp ult i64 %40, %43
  br i1 %.not30.i.i, label %46, label %44

44:                                               ; preds = %39
  %45 = sub i64 add (i64 ptrtoint (ptr @__itt_get_env_var.env_buff to i64), i64 4085), %42
  call void (i32, ...) @__itt_report_error(i32 noundef 5, ptr noundef nonnull @.str.157, i64 noundef %40, i64 noundef %45)
  br label %__itt_get_lib_name.exit

46:                                               ; preds = %39
  call void @llvm.lifetime.start.p0(i64 8, ptr nonnull %1)
  %47 = sub i64 add (i64 ptrtoint (ptr @__itt_get_env_var.env_buff to i64), i64 4085), %42
  %48 = add nuw i64 %40, 1
  %49 = call i64 @llvm.umin.i64(i64 %47, i64 %48)
  store volatile i64 %49, ptr %1, align 8, !tbaa !30
  %.0..0..0..0..0..0..0..0..i.i = load volatile i64, ptr %1, align 8, !tbaa !30
  %50 = call ptr @strncpy(ptr noundef %41, ptr noundef nonnull %38, i64 noundef %.0..0..0..0..0..0..0..0..i.i) #14
  %.0..0..0..0..0..0..0..0.2.i.i = load volatile i64, ptr %1, align 8, !tbaa !30
  %51 = getelementptr inbounds nuw i8, ptr %41, i64 %.0..0..0..0..0..0..0..0.2.i.i
  store i8 0, ptr %51, align 1, !tbaa !31
  call void @llvm.lifetime.end.p0(i64 8, ptr nonnull %1)
  %52 = getelementptr i8, ptr %41, i64 %40
  %53 = getelementptr i8, ptr %52, i64 1
  store ptr %53, ptr @__itt_get_env_var.env_value, align 8, !tbaa !105
  %54 = icmp eq ptr %41, null
  %55 = select i1 %54, i32 2, i32 3
  br label %__itt_get_lib_name.exit

__itt_get_lib_name.exit:                          ; preds = %37, %44, %46
  %.3.i.i = phi i32 [ %55, %46 ], [ 2, %37 ], [ 2, %44 ]
  store i32 %.3.i.i, ptr getelementptr inbounds nuw (i8, ptr @__itt__ittapi_global, i64 160), align 8, !tbaa !122
  br label %56

56:                                               ; preds = %__itt_get_lib_name.exit, %34
  %57 = phi i32 [ %.3.i.i, %__itt_get_lib_name.exit ], [ %35, %34 ]
  %58 = add i32 %57, -3
  %59 = icmp ult i32 %58, 2
  %60 = zext i1 %59 to i32
  %61 = call i32 @pthread_mutex_unlock(ptr noundef nonnull getelementptr inbounds nuw (i8, ptr @__itt__ittapi_global, i64 56)) #14
  ret i32 %60
}